; Function Attrs: nounwind uwtable
define dso_local i32 @Curl_creader_set_mime(ptr noundef %0, ptr noundef %1) local_unnamed_addr #0 {
  %3 = alloca ptr, align 8
  call void @llvm.lifetime.start.p0(i64 8, ptr nonnull %3) #18
  %4 = call i32 @Curl_creader_create(ptr noundef nonnull %3, ptr noundef %0, ptr noundef nonnull @cr_mime, i32 noundef 4) #18
  %.not = icmp eq i32 %4, 0
  br i1 %.not, label %5, label %35

5:                                                ; preds = %2
  %6 = load ptr, ptr %3, align 8, !tbaa !84
  %7 = getelementptr inbounds nuw i8, ptr %6, i64 16
  %8 = load ptr, ptr %7, align 8, !tbaa !86
  %9 = getelementptr inbounds nuw i8, ptr %8, i64 32
  store ptr %1, ptr %9, align 8, !tbaa !89
  %10 = getelementptr inbounds nuw i8, ptr %1, i64 20
  %11 = load i32, ptr %10, align 4, !tbaa !24
  %12 = shl i32 %11, 1
  %spec.store.select.i.i = and i32 %12, 4
  %13 = getelementptr inbounds nuw i8, ptr %1, i64 152
  call void @llvm.memset.p0.i64(ptr noundef nonnull align 8 dereferenceable(24) %13, i8 0, i64 24, i1 false)
  %14 = getelementptr inbounds nuw i8, ptr %1, i64 120
  %15 = load i32, ptr %14, align 8, !tbaa !26
  %16 = icmp ugt i32 %15, %spec.store.select.i.i
  br i1 %16, label %17, label %27

17:                                               ; preds = %5
  %18 = getelementptr inbounds nuw i8, ptr %1, i64 40
  %19 = load ptr, ptr %18, align 8, !tbaa !40
  %.not.i.i = icmp eq ptr %19, null
  br i1 %.not.i.i, label %24, label %20

20:                                               ; preds = %17
  %21 = getelementptr inbounds nuw i8, ptr %1, i64 56
  %22 = load ptr, ptr %21, align 8, !tbaa !19
  %23 = call i32 %19(ptr noundef %22, i64 noundef 0, i32 noundef 0) #18
  %cond.i = icmp eq i32 %23, 0
  br i1 %cond.i, label %27, label %._crit_edge

._crit_edge:                                      ; preds = %20
  %.pre = load ptr, ptr %3, align 8, !tbaa !84
  br label %24

24:                                               ; preds = %._crit_edge, %17
  %25 = phi ptr [ %.pre, %._crit_edge ], [ %6, %17 ]
  %26 = getelementptr inbounds nuw i8, ptr %1, i64 432
  store i64 1, ptr %26, align 8, !tbaa !25
  call void @Curl_creader_free(ptr noundef %0, ptr noundef %25) #18
  br label %35

27:                                               ; preds = %20, %5
  store i32 %spec.store.select.i.i, ptr %14, align 8, !tbaa !41
  %28 = getelementptr inbounds nuw i8, ptr %1, i64 128
  call void @llvm.memset.p0.i64(ptr noundef nonnull align 8 dereferenceable(16) %28, i8 0, i64 16, i1 false)
  %29 = getelementptr inbounds nuw i8, ptr %1, i64 432
  store i64 1, ptr %29, align 8, !tbaa !25
  %30 = load ptr, ptr %9, align 8, !tbaa !89
  %31 = call fastcc i64 @mime_size(ptr noundef %30)
  %32 = getelementptr inbounds nuw i8, ptr %8, i64 40
  store i64 %31, ptr %32, align 8, !tbaa !94
  %33 = load ptr, ptr %3, align 8, !tbaa !84
  %34 = call i32 @Curl_creader_set(ptr noundef %0, ptr noundef %33) #18
  br label %35

35:                                               ; preds = %2, %27, %24
  %.0 = phi i32 [ 65, %24 ], [ %34, %27 ], [ %4, %2 ]
  call void @llvm.lifetime.end.p0(i64 8, ptr nonnull %3) #18
  ret i32 %.0
}